; Function Attrs: nounwind uwtable
define ptr @extraZddCombination(ptr noundef %0, ptr noundef readonly captures(none) %1, i32 noundef %2) local_unnamed_addr #0 {
  %4 = getelementptr inbounds nuw i8, ptr %0, i64 40
  %5 = load ptr, ptr %4, align 8, !tbaa !34
  %6 = ptrtoint ptr %5 to i64
  %7 = and i64 %6, -2
  %8 = inttoptr i64 %7 to ptr
  %9 = getelementptr inbounds nuw i8, ptr %8, i64 4
  %10 = load i32, ptr %9, align 4, !tbaa !24
  %11 = add i32 %10, 1
  store i32 %11, ptr %9, align 4, !tbaa !24
  %12 = icmp sgt i32 %2, 0
  br i1 %12, label %.lr.ph, label %._crit_edge

.lr.ph:                                           ; preds = %3
  %13 = getelementptr inbounds nuw i8, ptr %0, i64 140
  %14 = getelementptr inbounds nuw i8, ptr %0, i64 336
  %15 = getelementptr inbounds nuw i8, ptr %0, i64 48
  %16 = zext nneg i32 %2 to i64
  br label %17

17:                                               ; preds = %.lr.ph, %49
  %indvars.iv = phi i64 [ %16, %.lr.ph ], [ %indvars.iv.next, %49 ]
  %.02329 = phi ptr [ %5, %.lr.ph ], [ %.1, %49 ]
  %indvars.iv.next = add nsw i64 %indvars.iv, -1
  %18 = load i32, ptr %13, align 4, !tbaa !49
  %19 = sext i32 %18 to i64
  %.not.not = icmp sgt i64 %indvars.iv, %19
  %20 = trunc nuw nsw i64 %indvars.iv.next to i32
  br i1 %.not.not, label %25, label %21

21:                                               ; preds = %17
  %22 = load ptr, ptr %14, align 8, !tbaa !84
  %23 = getelementptr inbounds nuw i32, ptr %22, i64 %indvars.iv.next
  %24 = load i32, ptr %23, align 4, !tbaa !31
  br label %25

25:                                               ; preds = %17, %21
  %26 = phi i32 [ %24, %21 ], [ %20, %17 ]
  %27 = sext i32 %26 to i64
  %28 = getelementptr inbounds i32, ptr %1, i64 %27
  %29 = load i32, ptr %28, align 4, !tbaa !31
  %30 = icmp eq i32 %29, 1
  br i1 %30, label %31, label %49

31:                                               ; preds = %25
  %32 = load ptr, ptr %15, align 8, !tbaa !63
  %33 = tail call ptr @cuddZddGetNode(ptr noundef nonnull %0, i32 noundef %26, ptr noundef %.02329, ptr noundef %32) #19
  %34 = icmp eq ptr %33, null
  br i1 %34, label %35, label %36

35:                                               ; preds = %31
  tail call void @Cudd_RecursiveDerefZdd(ptr noundef nonnull %0, ptr noundef %.02329) #19
  br label %54

36:                                               ; preds = %31
  %37 = ptrtoint ptr %33 to i64
  %38 = and i64 %37, -2
  %39 = inttoptr i64 %38 to ptr
  %40 = getelementptr inbounds nuw i8, ptr %39, i64 4
  %41 = load i32, ptr %40, align 4, !tbaa !24
  %42 = add i32 %41, 1
  store i32 %42, ptr %40, align 4, !tbaa !24
  %43 = ptrtoint ptr %.02329 to i64
  %44 = and i64 %43, -2
  %45 = inttoptr i64 %44 to ptr
  %46 = getelementptr inbounds nuw i8, ptr %45, i64 4
  %47 = load i32, ptr %46, align 4, !tbaa !24
  %48 = add i32 %47, -1
  store i32 %48, ptr %46, align 4, !tbaa !24
  br label %49

49:                                               ; preds = %25, %36
  %.1 = phi ptr [ %33, %36 ], [ %.02329, %25 ]
  %50 = icmp samesign ugt i64 %indvars.iv, 1
  br i1 %50, label %17, label %._crit_edge.loopexit, !llvm.loop !85

._crit_edge.loopexit:                             ; preds = %49
  %.pre = ptrtoint ptr %.1 to i64
  %.pre33 = and i64 %.pre, -2
  %.pre35 = inttoptr i64 %.pre33 to ptr
  br label %._crit_edge

._crit_edge:                                      ; preds = %._crit_edge.loopexit, %3
  %.pre-phi36 = phi ptr [ %.pre35, %._crit_edge.loopexit ], [ %8, %3 ]
  %.023.lcssa = phi ptr [ %.1, %._crit_edge.loopexit ], [ %5, %3 ]
  %51 = getelementptr inbounds nuw i8, ptr %.pre-phi36, i64 4
  %52 = load i32, ptr %51, align 4, !tbaa !24
  %53 = add i32 %52, -1
  store i32 %53, ptr %51, align 4, !tbaa !24
  br label %54

54:                                               ; preds = %._crit_edge, %35
  %.0 = phi ptr [ null, %35 ], [ %.023.lcssa, %._crit_edge ]
  ret ptr %.0
}